(lp0
F0.1441
aF0.1379
aF0.1216
aF0.1264
aF0.11
aF0.1713
aF0.1188
aF0.1394
aF0.1665
aF0.1277
aF0.1262
aF0.131
aF0.1399
aF0.1336
aF0.1288
aF0.1389
aF0.1588
aF0.1391
aF0.1353
aF0.141
aF0.1338
aF0.1547
aF0.1401
aF0.1357
aF0.131
aF0.1363
aF0.1387
aF0.1457
aF0.1361
aF0.1268
aF0.1383
aF0.1663
aF0.147
aF0.1195
aF0.1231
aF0.168
aF0.1579
aF0.1631
aF0.1194
aF0.1293
aF0.1474
aF0.1179
aF0.1452
aF0.1505
aF0.1318
aF0.1726
aF0.1345
aF0.1621
aF0.1224
aF0.1486
aF0.162
aF0.1237
aF0.1371
aF0.1439
aF0.1624
aF0.1211
aF0.1731
aF0.1517
aF0.1491
aF0.1399
aF0.1387
aF0.1288
aF0.1141
aF0.1399
aF0.1379
aF0.1527
aF0.1313
aF0.1705
aF0.1483
aF0.1475
aF0.1347
aF0.1479
aF0.1438
aF0.1401
aF0.1641
aF0.1669
aF0.1607
aF0.1352
aF0.1377
aF0.1295
aF0.1543
aF0.1265
aF0.1774
aF0.1209
aF0.1174
aF0.1479
aF0.1397
aF0.1785
aF0.149
aF0.134
aF0.1336
aF0.1311
aF0.1586
aF0.1741
aF0.1259
aF0.1653
aF0.1517
aF0.1494
aF0.107
aF0.1724
a.